; Function Attrs: mustprogress nofree norecurse nosync nounwind willreturn memory(argmem: read) uwtable
define internal noundef zeroext i1 @_ZNK12_GLOBAL__N_124ParsedAttrInfoMSNoVTable14existsInTargetERKN5clang10TargetInfoE(ptr nocapture nonnull readnone align 8 %0, ptr nocapture noundef nonnull readonly align 8 dereferenceable(489) %1) unnamed_addr #2 align 2 {
  %3 = getelementptr inbounds i8, ptr %1, i64 248
  %4 = load i32, ptr %3, align 8
  switch i32 %4, label %7 [
    i32 37, label %5
    i32 38, label %5
    i32 1, label %5
    i32 35, label %5
    i32 3, label %5
  ]

5:                                                ; preds = %2, %2, %2, %2, %2
  %6 = getelementptr inbounds nuw i8, ptr %1, i64 340
  %.sroa.0.0.copyload.i = load i32, ptr %6, align 4
  %cond.i = icmp eq i32 %.sroa.0.0.copyload.i, 10
  br label %7

7:                                                ; preds = %2, %5
  %8 = phi i1 [ %cond.i, %5 ], [ false, %2 ]
  ret i1 %8
}